target datalayout = "e-m:e-p270:32:32-p271:32:32-p272:64:64-i64:64-i128:128-f80:128-n8:16:32:64-S128"
target triple = "x86_64-pc-linux-gnu"

; Function Attrs: nounwind uwtable
define internal void @pred4x4_dc_9_c(ptr noundef %0, ptr noundef %1, i64 noundef %2) #1 {
  %4 = alloca ptr, align 8
  %5 = alloca ptr, align 8
  %6 = alloca i64, align 8
  %7 = alloca ptr, align 8
  %8 = alloca i32, align 4
  %9 = alloca i32, align 4
  %10 = alloca i64, align 8
  store ptr %0, ptr %4, align 8, !tbaa !12
  store ptr %1, ptr %5, align 8, !tbaa !12
  store i64 %2, ptr %6, align 8, !tbaa !14
  call void @llvm.lifetime.start.p0(i64 8, ptr %7) #9
  %11 = load ptr, ptr %4, align 8, !tbaa !12
  store ptr %11, ptr %7, align 8, !tbaa !16
  call void @llvm.lifetime.start.p0(i64 4, ptr %8) #9
  %12 = load i64, ptr %6, align 8, !tbaa !14
  %13 = ashr i64 %12, 1
  %14 = trunc i64 %13 to i32
  store i32 %14, ptr %8, align 4, !tbaa !9
  call void @llvm.lifetime.start.p0(i64 4, ptr %9) #9
  %15 = load ptr, ptr %7, align 8, !tbaa !16
  %16 = load i32, ptr %8, align 4, !tbaa !9
  %17 = sub nsw i32 0, %16
  %18 = sext i32 %17 to i64
  %19 = getelementptr inbounds i16, ptr %15, i64 %18
  %20 = load i16, ptr %19, align 2, !tbaa !19
  %21 = zext i16 %20 to i32
  %22 = load ptr, ptr %7, align 8, !tbaa !16
  %23 = load i32, ptr %8, align 4, !tbaa !9
  %24 = sub nsw i32 1, %23
  %25 = sext i32 %24 to i64
  %26 = getelementptr inbounds i16, ptr %22, i64 %25
  %27 = load i16, ptr %26, align 2, !tbaa !19
  %28 = zext i16 %27 to i32
  %29 = add nsw i32 %21, %28
  %30 = load ptr, ptr %7, align 8, !tbaa !16
  %31 = load i32, ptr %8, align 4, !tbaa !9
  %32 = sub nsw i32 2, %31
  %33 = sext i32 %32 to i64
  %34 = getelementptr inbounds i16, ptr %30, i64 %33
  %35 = load i16, ptr %34, align 2, !tbaa !19
  %36 = zext i16 %35 to i32
  %37 = add nsw i32 %29, %36
  %38 = load ptr, ptr %7, align 8, !tbaa !16
  %39 = load i32, ptr %8, align 4, !tbaa !9
  %40 = sub nsw i32 3, %39
  %41 = sext i32 %40 to i64
  %42 = getelementptr inbounds i16, ptr %38, i64 %41
  %43 = load i16, ptr %42, align 2, !tbaa !19
  %44 = zext i16 %43 to i32
  %45 = add nsw i32 %37, %44
  %46 = load ptr, ptr %7, align 8, !tbaa !16
  %47 = load i32, ptr %8, align 4, !tbaa !9
  %48 = mul nsw i32 0, %47
  %49 = add nsw i32 -1, %48
  %50 = sext i32 %49 to i64
  %51 = getelementptr inbounds i16, ptr %46, i64 %50
  %52 = load i16, ptr %51, align 2, !tbaa !19
  %53 = zext i16 %52 to i32
  %54 = add nsw i32 %45, %53
  %55 = load ptr, ptr %7, align 8, !tbaa !16
  %56 = load i32, ptr %8, align 4, !tbaa !9
  %57 = mul nsw i32 1, %56
  %58 = add nsw i32 -1, %57
  %59 = sext i32 %58 to i64
  %60 = getelementptr inbounds i16, ptr %55, i64 %59
  %61 = load i16, ptr %60, align 2, !tbaa !19
  %62 = zext i16 %61 to i32
  %63 = add nsw i32 %54, %62
  %64 = load ptr, ptr %7, align 8, !tbaa !16
  %65 = load i32, ptr %8, align 4, !tbaa !9
  %66 = mul nsw i32 2, %65
  %67 = add nsw i32 -1, %66
  %68 = sext i32 %67 to i64
  %69 = getelementptr inbounds i16, ptr %64, i64 %68
  %70 = load i16, ptr %69, align 2, !tbaa !19
  %71 = zext i16 %70 to i32
  %72 = add nsw i32 %63, %71
  %73 = load ptr, ptr %7, align 8, !tbaa !16
  %74 = load i32, ptr %8, align 4, !tbaa !9
  %75 = mul nsw i32 3, %74
  %76 = add nsw i32 -1, %75
  %77 = sext i32 %76 to i64
  %78 = getelementptr inbounds i16, ptr %73, i64 %77
  %79 = load i16, ptr %78, align 2, !tbaa !19
  %80 = zext i16 %79 to i32
  %81 = add nsw i32 %72, %80
  %82 = add nsw i32 %81, 4
  %83 = ashr i32 %82, 3
  store i32 %83, ptr %9, align 4, !tbaa !9
  call void @llvm.lifetime.start.p0(i64 8, ptr %10) #9
  %84 = load i32, ptr %9, align 4, !tbaa !9
  %85 = sext i32 %84 to i64
  %86 = mul i64 %85, 281479271743489
  store i64 %86, ptr %10, align 8, !tbaa !14
  %87 = load i64, ptr %10, align 8, !tbaa !14
  %88 = load ptr, ptr %7, align 8, !tbaa !16
  %89 = load i32, ptr %8, align 4, !tbaa !9
  %90 = mul nsw i32 0, %89
  %91 = sext i32 %90 to i64
  %92 = getelementptr inbounds i16, ptr %88, i64 %91
  store i64 %87, ptr %92, align 8, !tbaa !18
  %93 = load i64, ptr %10, align 8, !tbaa !14
  %94 = load ptr, ptr %7, align 8, !tbaa !16
  %95 = load i32, ptr %8, align 4, !tbaa !9
  %96 = mul nsw i32 1, %95
  %97 = sext i32 %96 to i64
  %98 = getelementptr inbounds i16, ptr %94, i64 %97
  store i64 %93, ptr %98, align 8, !tbaa !18
  %99 = load i64, ptr %10, align 8, !tbaa !14
  %100 = load ptr, ptr %7, align 8, !tbaa !16
  %101 = load i32, ptr %8, align 4, !tbaa !9
  %102 = mul nsw i32 2, %101
  %103 = sext i32 %102 to i64
  %104 = getelementptr inbounds i16, ptr %100, i64 %103
  store i64 %99, ptr %104, align 8, !tbaa !18
  %105 = load i64, ptr %10, align 8, !tbaa !14
  %106 = load ptr, ptr %7, align 8, !tbaa !16
  %107 = load i32, ptr %8, align 4, !tbaa !9
  %108 = mul nsw i32 3, %107
  %109 = sext i32 %108 to i64
  %110 = getelementptr inbounds i16, ptr %106, i64 %109
  store i64 %105, ptr %110, align 8, !tbaa !18
  call void @llvm.lifetime.end.p0(i64 8, ptr %10) #9
  call void @llvm.lifetime.end.p0(i64 4, ptr %9) #9
  call void @llvm.lifetime.end.p0(i64 4, ptr %8) #9
  call void @llvm.lifetime.end.p0(i64 8, ptr %7) #9
  ret void
}